target datalayout = "e-m:e-p270:32:32-p271:32:32-p272:64:64-i64:64-i128:128-f80:128-n8:16:32:64-S128"
target triple = "x86_64-pc-linux-gnu"

%"class.std::vector.0" = type { %"struct.std::_Vector_base.1" }
%"struct.std::_Vector_base.1" = type { %"struct.std::_Vector_base<int, std::allocator<int>>::_Vector_impl" }
%"struct.std::_Vector_base<int, std::allocator<int>>::_Vector_impl" = type { %"struct.std::_Vector_base<int, std::allocator<int>>::_Vector_impl_data" }
%"struct.std::_Vector_base<int, std::allocator<int>>::_Vector_impl_data" = type { ptr, ptr, ptr }
%"class.cv::Size_" = type { i32, i32 }
%"struct.cv::MatSize" = type { ptr }
%"struct.cv::MatStep" = type { ptr, [2 x i64] }
%"class.cv::UMat" = type { i32, i32, i32, i32, ptr, i32, ptr, i64, %"struct.cv::MatSize", %"struct.cv::MatStep" }
%"class.std::__shared_count" = type { ptr }
%"struct.cv::Ptr.15" = type { %"class.std::shared_ptr.16" }
%"class.std::shared_ptr.16" = type { %"class.std::__shared_ptr.17" }
%"class.std::__shared_ptr.17" = type { ptr, %"class.std::__shared_count" }
%"struct.std::_Vector_base.25" = type { %"struct.std::_Vector_base<float, std::allocator<float>>::_Vector_impl" }
%"struct.std::_Vector_base<float, std::allocator<float>>::_Vector_impl" = type { %"struct.std::_Vector_base<float, std::allocator<float>>::_Vector_impl_data" }
%"struct.std::_Vector_base<float, std::allocator<float>>::_Vector_impl_data" = type { ptr, ptr, ptr }
%"class.cv::CascadeClassifierImpl" = type { %"class.cv::BaseCascadeClassifier", %"class.cv::CascadeClassifierImpl::Data", %"struct.cv::Ptr.15", %"struct.cv::Ptr.96", %"struct.cv::Ptr.100", %"class.cv::UMat", %"class.cv::UMat", %"class.cv::UMat", %"class.cv::UMat", %"class.cv::UMat", %"class.cv::UMat", %"class.std::recursive_mutex" }
%"class.cv::BaseCascadeClassifier" = type { %"class.cv::Algorithm" }
%"class.cv::Algorithm" = type { ptr }
%"class.cv::CascadeClassifierImpl::Data" = type { i32, i32, i32, i32, i32, %"class.cv::Size_", %"class.std::vector.76", %"class.std::vector.81", %"class.std::vector.86", %"class.std::vector.24", %"class.std::vector.0", %"class.std::vector.91" }
%"class.std::vector.76" = type { %"struct.std::_Vector_base.77" }
%"struct.std::_Vector_base.77" = type { %"struct.std::_Vector_base<cv::CascadeClassifierImpl::Data::Stage, std::allocator<cv::CascadeClassifierImpl::Data::Stage>>::_Vector_impl" }
%"struct.std::_Vector_base<cv::CascadeClassifierImpl::Data::Stage, std::allocator<cv::CascadeClassifierImpl::Data::Stage>>::_Vector_impl" = type { %"struct.std::_Vector_base<cv::CascadeClassifierImpl::Data::Stage, std::allocator<cv::CascadeClassifierImpl::Data::Stage>>::_Vector_impl_data" }
%"struct.std::_Vector_base<cv::CascadeClassifierImpl::Data::Stage, std::allocator<cv::CascadeClassifierImpl::Data::Stage>>::_Vector_impl_data" = type { ptr, ptr, ptr }
%"class.std::vector.81" = type { %"struct.std::_Vector_base.82" }
%"struct.std::_Vector_base.82" = type { %"struct.std::_Vector_base<cv::CascadeClassifierImpl::Data::DTree, std::allocator<cv::CascadeClassifierImpl::Data::DTree>>::_Vector_impl" }
%"struct.std::_Vector_base<cv::CascadeClassifierImpl::Data::DTree, std::allocator<cv::CascadeClassifierImpl::Data::DTree>>::_Vector_impl" = type { %"struct.std::_Vector_base<cv::CascadeClassifierImpl::Data::DTree, std::allocator<cv::CascadeClassifierImpl::Data::DTree>>::_Vector_impl_data" }
%"struct.std::_Vector_base<cv::CascadeClassifierImpl::Data::DTree, std::allocator<cv::CascadeClassifierImpl::Data::DTree>>::_Vector_impl_data" = type { ptr, ptr, ptr }
%"class.std::vector.86" = type { %"struct.std::_Vector_base.87" }
%"struct.std::_Vector_base.87" = type { %"struct.std::_Vector_base<cv::CascadeClassifierImpl::Data::DTreeNode, std::allocator<cv::CascadeClassifierImpl::Data::DTreeNode>>::_Vector_impl" }
%"struct.std::_Vector_base<cv::CascadeClassifierImpl::Data::DTreeNode, std::allocator<cv::CascadeClassifierImpl::Data::DTreeNode>>::_Vector_impl" = type { %"struct.std::_Vector_base<cv::CascadeClassifierImpl::Data::DTreeNode, std::allocator<cv::CascadeClassifierImpl::Data::DTreeNode>>::_Vector_impl_data" }
%"struct.std::_Vector_base<cv::CascadeClassifierImpl::Data::DTreeNode, std::allocator<cv::CascadeClassifierImpl::Data::DTreeNode>>::_Vector_impl_data" = type { ptr, ptr, ptr }
%"class.std::vector.24" = type { %"struct.std::_Vector_base.25" }
%"class.std::vector.91" = type { %"struct.std::_Vector_base.92" }
%"struct.std::_Vector_base.92" = type { %"struct.std::_Vector_base<cv::CascadeClassifierImpl::Data::Stump, std::allocator<cv::CascadeClassifierImpl::Data::Stump>>::_Vector_impl" }
%"struct.std::_Vector_base<cv::CascadeClassifierImpl::Data::Stump, std::allocator<cv::CascadeClassifierImpl::Data::Stump>>::_Vector_impl" = type { %"struct.std::_Vector_base<cv::CascadeClassifierImpl::Data::Stump, std::allocator<cv::CascadeClassifierImpl::Data::Stump>>::_Vector_impl_data" }
%"struct.std::_Vector_base<cv::CascadeClassifierImpl::Data::Stump, std::allocator<cv::CascadeClassifierImpl::Data::Stump>>::_Vector_impl_data" = type { ptr, ptr, ptr }
%"struct.cv::Ptr.96" = type { %"class.std::shared_ptr.97" }
%"class.std::shared_ptr.97" = type { %"class.std::__shared_ptr.98" }
%"class.std::__shared_ptr.98" = type { ptr, %"class.std::__shared_count" }
%"struct.cv::Ptr.100" = type { %"class.std::shared_ptr.101" }
%"class.std::shared_ptr.101" = type { %"class.std::__shared_ptr.102" }
%"class.std::__shared_ptr.102" = type { ptr, %"class.std::__shared_count" }
%"class.std::recursive_mutex" = type { %"class.std::__recursive_mutex_base" }
%"class.std::__recursive_mutex_base" = type { %union.pthread_mutex_t }
%union.pthread_mutex_t = type { %struct.__pthread_mutex_s }
%struct.__pthread_mutex_s = type { i32, i32, i32, i32, i32, i16, i16, %struct.__pthread_internal_list }
%struct.__pthread_internal_list = type { ptr, ptr }

@_ZN2cv21CascadeClassifierImpl4DataC1Ev = hidden unnamed_addr alias void (ptr), ptr @_ZN2cv21CascadeClassifierImpl4DataC2Ev

; Function Attrs: mustprogress nounwind uwtable
define linkonce_odr hidden void @_ZNSt14__shared_countILN9__gnu_cxx12_Lock_policyE2EEC2Ev(ptr noundef nonnull align 8 dereferenceable(8) %0) unnamed_addr #6 comdat align 2 {
  %2 = alloca ptr, align 8
  store ptr %0, ptr %2, align 8, !tbaa !544
  %3 = load ptr, ptr %2, align 8
  %4 = getelementptr inbounds nuw %"class.std::__shared_count", ptr %3, i32 0, i32 0
  store ptr null, ptr %4, align 8, !tbaa !546
  ret void
}

; Function Attrs: mustprogress nounwind uwtable
define linkonce_odr hidden void @_ZNSt12__shared_ptrIN2cv21BaseCascadeClassifier13MaskGeneratorELN9__gnu_cxx12_Lock_policyE2EEC2Ev(ptr noundef nonnull align 8 dereferenceable(16) %0) unnamed_addr #6 comdat align 2 {
  %2 = alloca ptr, align 8
  store ptr %0, ptr %2, align 8, !tbaa !300
  %3 = load ptr, ptr %2, align 8
  %4 = getelementptr inbounds nuw %"class.std::__shared_ptr.102", ptr %3, i32 0, i32 0
  store ptr null, ptr %4, align 8, !tbaa !393
  %5 = getelementptr inbounds nuw %"class.std::__shared_ptr.102", ptr %3, i32 0, i32 1
  call void @_ZNSt14__shared_countILN9__gnu_cxx12_Lock_policyE2EEC2Ev(ptr noundef nonnull align 8 dereferenceable(8) %5) #3
  ret void
}

; Function Attrs: mustprogress nounwind uwtable
define linkonce_odr hidden void @_ZNSt12__shared_ptrI23CvHaarClassifierCascadeLN9__gnu_cxx12_Lock_policyE2EEC2Ev(ptr noundef nonnull align 8 dereferenceable(16) %0) unnamed_addr #6 comdat align 2 {
  %2 = alloca ptr, align 8
  store ptr %0, ptr %2, align 8, !tbaa !304
  %3 = load ptr, ptr %2, align 8
  %4 = getelementptr inbounds nuw %"class.std::__shared_ptr.98", ptr %3, i32 0, i32 0
  store ptr null, ptr %4, align 8, !tbaa !306
  %5 = getelementptr inbounds nuw %"class.std::__shared_ptr.98", ptr %3, i32 0, i32 1
  call void @_ZNSt14__shared_countILN9__gnu_cxx12_Lock_policyE2EEC2Ev(ptr noundef nonnull align 8 dereferenceable(8) %5) #3
  ret void
}

; Function Attrs: mustprogress nounwind uwtable
define linkonce_odr hidden void @_ZNSt12__shared_ptrIN2cv16FeatureEvaluatorELN9__gnu_cxx12_Lock_policyE2EEC2Ev(ptr noundef nonnull align 8 dereferenceable(16) %0) unnamed_addr #6 comdat align 2 {
  %2 = alloca ptr, align 8
  store ptr %0, ptr %2, align 8, !tbaa !835
  %3 = load ptr, ptr %2, align 8
  %4 = getelementptr inbounds nuw %"class.std::__shared_ptr.17", ptr %3, i32 0, i32 0
  store ptr null, ptr %4, align 8, !tbaa !837
  %5 = getelementptr inbounds nuw %"class.std::__shared_ptr.17", ptr %3, i32 0, i32 1
  call void @_ZNSt14__shared_countILN9__gnu_cxx12_Lock_policyE2EEC2Ev(ptr noundef nonnull align 8 dereferenceable(8) %5) #3
  ret void
}

; Function Attrs: mustprogress nounwind uwtable
define linkonce_odr hidden void @_ZNSt22__recursive_mutex_baseC2Ev(ptr noundef nonnull align 8 dereferenceable(40) %0) unnamed_addr #6 comdat align 2 {
  %2 = alloca ptr, align 8
  store ptr %0, ptr %2, align 8, !tbaa !561
  %3 = load ptr, ptr %2, align 8
  %4 = getelementptr inbounds nuw %"class.std::__recursive_mutex_base", ptr %3, i32 0, i32 0
  call void @llvm.memset.p0.i64(ptr align 8 %4, i8 0, i64 40, i1 false)
  %5 = getelementptr inbounds nuw %struct.__pthread_mutex_s, ptr %4, i32 0, i32 4
  store i32 1, ptr %5, align 8, !tbaa !563
  ret void
}

; Function Attrs: mustprogress nounwind uwtable
define linkonce_odr hidden void @_ZNSt10shared_ptrIN2cv21BaseCascadeClassifier13MaskGeneratorEEC2Ev(ptr noundef nonnull align 8 dereferenceable(16) %0) unnamed_addr #6 comdat align 2 {
  %2 = alloca ptr, align 8
  store ptr %0, ptr %2, align 8, !tbaa !961
  %3 = load ptr, ptr %2, align 8
  call void @_ZNSt12__shared_ptrIN2cv21BaseCascadeClassifier13MaskGeneratorELN9__gnu_cxx12_Lock_policyE2EEC2Ev(ptr noundef nonnull align 8 dereferenceable(16) %3) #3
  ret void
}

; Function Attrs: mustprogress nounwind uwtable
define linkonce_odr hidden void @_ZNSt10shared_ptrI23CvHaarClassifierCascadeEC2Ev(ptr noundef nonnull align 8 dereferenceable(16) %0) unnamed_addr #6 comdat align 2 {
  %2 = alloca ptr, align 8
  store ptr %0, ptr %2, align 8, !tbaa !959
  %3 = load ptr, ptr %2, align 8
  call void @_ZNSt12__shared_ptrI23CvHaarClassifierCascadeLN9__gnu_cxx12_Lock_policyE2EEC2Ev(ptr noundef nonnull align 8 dereferenceable(16) %3) #3
  ret void
}

; Function Attrs: mustprogress nounwind uwtable
define linkonce_odr hidden void @_ZNSt10shared_ptrIN2cv16FeatureEvaluatorEEC2Ev(ptr noundef nonnull align 8 dereferenceable(16) %0) unnamed_addr #6 comdat align 2 {
  %2 = alloca ptr, align 8
  store ptr %0, ptr %2, align 8, !tbaa !714
  %3 = load ptr, ptr %2, align 8
  call void @_ZNSt12__shared_ptrIN2cv16FeatureEvaluatorELN9__gnu_cxx12_Lock_policyE2EEC2Ev(ptr noundef nonnull align 8 dereferenceable(16) %3) #3
  ret void
}

; Function Attrs: mustprogress nounwind uwtable
define void @_ZN2cv21BaseCascadeClassifierD2Ev(ptr noundef nonnull align 8 dereferenceable(8) %0) unnamed_addr #6 align 2 {
  %2 = alloca ptr, align 8
  store ptr %0, ptr %2, align 8, !tbaa !292
  %3 = load ptr, ptr %2, align 8
  call void @_ZN2cv9AlgorithmD2Ev(ptr noundef nonnull align 8 dereferenceable(8) %3) #3
  ret void
}

; Function Attrs: mustprogress nounwind uwtable
define linkonce_odr hidden void @_ZNSt15recursive_mutexC2Ev(ptr noundef nonnull align 8 dereferenceable(40) %0) unnamed_addr #6 comdat align 2 {
  %2 = alloca ptr, align 8
  store ptr %0, ptr %2, align 8, !tbaa !298
  %3 = load ptr, ptr %2, align 8
  call void @_ZNSt22__recursive_mutex_baseC2Ev(ptr noundef nonnull align 8 dereferenceable(40) %3) #3
  ret void
}

; Function Attrs: inlinehint mustprogress nounwind uwtable
define linkonce_odr hidden void @_ZN2cv3PtrINS_21BaseCascadeClassifier13MaskGeneratorEEC2Ev(ptr noundef nonnull align 8 dereferenceable(16) %0) unnamed_addr #9 comdat align 2 {
  %2 = alloca ptr, align 8
  store ptr %0, ptr %2, align 8, !tbaa !296
  %3 = load ptr, ptr %2, align 8
  call void @_ZNSt10shared_ptrIN2cv21BaseCascadeClassifier13MaskGeneratorEEC2Ev(ptr noundef nonnull align 8 dereferenceable(16) %3) #3
  ret void
}

; Function Attrs: inlinehint mustprogress nounwind uwtable
define linkonce_odr hidden void @_ZN2cv3PtrI23CvHaarClassifierCascadeEC2Ev(ptr noundef nonnull align 8 dereferenceable(16) %0) unnamed_addr #9 comdat align 2 {
  %2 = alloca ptr, align 8
  store ptr %0, ptr %2, align 8, !tbaa !294
  %3 = load ptr, ptr %2, align 8
  call void @_ZNSt10shared_ptrI23CvHaarClassifierCascadeEC2Ev(ptr noundef nonnull align 8 dereferenceable(16) %3) #3
  ret void
}

; Function Attrs: inlinehint mustprogress nounwind uwtable
define linkonce_odr hidden void @_ZN2cv3PtrINS_16FeatureEvaluatorEEC2Ev(ptr noundef nonnull align 8 dereferenceable(16) %0) unnamed_addr #9 comdat align 2 {
  %2 = alloca ptr, align 8
  store ptr %0, ptr %2, align 8, !tbaa !111
  %3 = load ptr, ptr %2, align 8
  call void @_ZNSt10shared_ptrIN2cv16FeatureEvaluatorEEC2Ev(ptr noundef nonnull align 8 dereferenceable(16) %3) #3
  ret void
}

; Function Attrs: inlinehint mustprogress uwtable
define linkonce_odr hidden void @_ZN2cv21BaseCascadeClassifierC2Ev(ptr noundef nonnull align 8 dereferenceable(8) %0) unnamed_addr #8 comdat align 2 {
  %2 = alloca ptr, align 8
  store ptr %0, ptr %2, align 8, !tbaa !292
  %3 = load ptr, ptr %2, align 8
  call void @_ZN2cv9AlgorithmC2Ev(ptr noundef nonnull align 8 dereferenceable(8) %3)
  store ptr getelementptr inbounds inrange(-16, 144) ({ [20 x ptr] }, ptr @_ZTVN2cv21BaseCascadeClassifierE, i32 0, i32 0, i32 2), ptr %3, align 8, !tbaa !98
  ret void
}

; Function Attrs: mustprogress uwtable
define hidden void @_ZN2cv21CascadeClassifierImplC2Ev(ptr noundef nonnull align 8 dereferenceable(752) %0) unnamed_addr #4 align 2 personality ptr @__gxx_personality_v0 {
  %2 = alloca ptr, align 8
  %3 = alloca ptr, align 8
  %4 = alloca i32, align 4
  store ptr %0, ptr %2, align 8, !tbaa !290
  %5 = load ptr, ptr %2, align 8
  call void @_ZN2cv21BaseCascadeClassifierC2Ev(ptr noundef nonnull align 8 dereferenceable(8) %5)
  store ptr getelementptr inbounds inrange(-16, 144) ({ [20 x ptr] }, ptr @_ZTVN2cv21CascadeClassifierImplE, i32 0, i32 0, i32 2), ptr %5, align 8, !tbaa !98
  %6 = getelementptr inbounds nuw %"class.cv::CascadeClassifierImpl", ptr %5, i32 0, i32 1
  invoke void @_ZN2cv21CascadeClassifierImpl4DataC1Ev(ptr noundef nonnull align 8 dereferenceable(176) %6)
          to label %7 unwind label %18

7:                                                ; preds = %1
  %8 = getelementptr inbounds nuw %"class.cv::CascadeClassifierImpl", ptr %5, i32 0, i32 2
  call void @_ZN2cv3PtrINS_16FeatureEvaluatorEEC2Ev(ptr noundef nonnull align 8 dereferenceable(16) %8) #3
  %9 = getelementptr inbounds nuw %"class.cv::CascadeClassifierImpl", ptr %5, i32 0, i32 3
  call void @_ZN2cv3PtrI23CvHaarClassifierCascadeEC2Ev(ptr noundef nonnull align 8 dereferenceable(16) %9) #3
  %10 = getelementptr inbounds nuw %"class.cv::CascadeClassifierImpl", ptr %5, i32 0, i32 4
  call void @_ZN2cv3PtrINS_21BaseCascadeClassifier13MaskGeneratorEEC2Ev(ptr noundef nonnull align 8 dereferenceable(16) %10) #3
  %11 = getelementptr inbounds nuw %"class.cv::CascadeClassifierImpl", ptr %5, i32 0, i32 5
  call void @_ZN2cv4UMatC1ENS_14UMatUsageFlagsE(ptr noundef nonnull align 8 dereferenceable(80) %11, i32 noundef 0) #3
  %12 = getelementptr inbounds nuw %"class.cv::CascadeClassifierImpl", ptr %5, i32 0, i32 6
  call void @_ZN2cv4UMatC1ENS_14UMatUsageFlagsE(ptr noundef nonnull align 8 dereferenceable(80) %12, i32 noundef 0) #3
  %13 = getelementptr inbounds nuw %"class.cv::CascadeClassifierImpl", ptr %5, i32 0, i32 7
  call void @_ZN2cv4UMatC1ENS_14UMatUsageFlagsE(ptr noundef nonnull align 8 dereferenceable(80) %13, i32 noundef 0) #3
  %14 = getelementptr inbounds nuw %"class.cv::CascadeClassifierImpl", ptr %5, i32 0, i32 8
  call void @_ZN2cv4UMatC1ENS_14UMatUsageFlagsE(ptr noundef nonnull align 8 dereferenceable(80) %14, i32 noundef 0) #3
  %15 = getelementptr inbounds nuw %"class.cv::CascadeClassifierImpl", ptr %5, i32 0, i32 9
  call void @_ZN2cv4UMatC1ENS_14UMatUsageFlagsE(ptr noundef nonnull align 8 dereferenceable(80) %15, i32 noundef 0) #3
  %16 = getelementptr inbounds nuw %"class.cv::CascadeClassifierImpl", ptr %5, i32 0, i32 10
  call void @_ZN2cv4UMatC1ENS_14UMatUsageFlagsE(ptr noundef nonnull align 8 dereferenceable(80) %16, i32 noundef 0) #3
  %17 = getelementptr inbounds nuw %"class.cv::CascadeClassifierImpl", ptr %5, i32 0, i32 11
  call void @_ZNSt15recursive_mutexC2Ev(ptr noundef nonnull align 8 dereferenceable(40) %17) #3
  ret void

18:                                               ; preds = %1
  %19 = landingpad { ptr, i32 }
          cleanup
  %20 = extractvalue { ptr, i32 } %19, 0
  store ptr %20, ptr %3, align 8
  %21 = extractvalue { ptr, i32 } %19, 1
  store i32 %21, ptr %4, align 4
  call void @_ZN2cv21BaseCascadeClassifierD2Ev(ptr noundef nonnull align 8 dereferenceable(8) %5) #3
  br label %22

22:                                               ; preds = %18
  %23 = load ptr, ptr %3, align 8
  %24 = load i32, ptr %4, align 4
  %25 = insertvalue { ptr, i32 } poison, ptr %23, 0
  %26 = insertvalue { ptr, i32 } %25, i32 %24, 1
  resume { ptr, i32 } %26
}