; Function Attrs: mustprogress uwtable
define hidden void @_ZN2cv21CascadeClassifierImplC2Ev(ptr noundef nonnull align 8 dereferenceable(752) %0) unnamed_addr #5 align 2 personality ptr @__gxx_personality_v0 {
  tail call void @_ZN2cv9AlgorithmC2Ev(ptr noundef nonnull align 8 dereferenceable(8) %0)
  store ptr getelementptr inbounds nuw inrange(-16, 144) (i8, ptr @_ZTVN2cv21CascadeClassifierImplE, i64 16), ptr %0, align 8, !tbaa !80
  %2 = getelementptr inbounds nuw i8, ptr %0, i64 8
  %3 = getelementptr inbounds nuw i8, ptr %0, i64 40
  tail call void @llvm.memset.p0.i64(ptr noundef nonnull align 8 dereferenceable(176) %2, i8 0, i64 28, i1 false)
  %4 = getelementptr inbounds nuw i8, ptr %0, i64 232
  tail call void @llvm.memset.p0.i64(ptr noundef nonnull align 8 dereferenceable(192) %3, i8 0, i64 192, i1 false)
  tail call void @_ZN2cv4UMatC1ENS_14UMatUsageFlagsE(ptr noundef nonnull align 8 dereferenceable(80) %4, i32 noundef 0) #32
  %5 = getelementptr inbounds nuw i8, ptr %0, i64 312
  tail call void @_ZN2cv4UMatC1ENS_14UMatUsageFlagsE(ptr noundef nonnull align 8 dereferenceable(80) %5, i32 noundef 0) #32
  %6 = getelementptr inbounds nuw i8, ptr %0, i64 392
  tail call void @_ZN2cv4UMatC1ENS_14UMatUsageFlagsE(ptr noundef nonnull align 8 dereferenceable(80) %6, i32 noundef 0) #32
  %7 = getelementptr inbounds nuw i8, ptr %0, i64 472
  tail call void @_ZN2cv4UMatC1ENS_14UMatUsageFlagsE(ptr noundef nonnull align 8 dereferenceable(80) %7, i32 noundef 0) #32
  %8 = getelementptr inbounds nuw i8, ptr %0, i64 552
  tail call void @_ZN2cv4UMatC1ENS_14UMatUsageFlagsE(ptr noundef nonnull align 8 dereferenceable(80) %8, i32 noundef 0) #32
  %9 = getelementptr inbounds nuw i8, ptr %0, i64 632
  tail call void @_ZN2cv4UMatC1ENS_14UMatUsageFlagsE(ptr noundef nonnull align 8 dereferenceable(80) %9, i32 noundef 0) #32
  %10 = getelementptr inbounds nuw i8, ptr %0, i64 712
  tail call void @llvm.memset.p0.i64(ptr noundef nonnull align 8 dereferenceable(40) %10, i8 0, i64 40, i1 false)
  %11 = getelementptr inbounds nuw i8, ptr %0, i64 728
  store i32 1, ptr %11, align 8, !tbaa !329
  ret void
}